(dp0
I0
(dp1
S'allowed_drop'
p2
F0.01
sS'average_epoch_time'
p3
NsS'n_neurons'
p4
I103
sS'influenced_neurons_by_i0_neuron'
p5
(dp6
I0
(lp7
I0
aI1
aI2
aI3
aI4
aI5
aI6
aI7
aI8
aI9
aI10
aI11
aI12
aI13
aI14
aI15
aI16
aI17
aI18
aI19
aI20
aI21
aI22
aI23
aI24
aI25
aI26
aI27
aI28
aI29
aI30
aI31
aI32
aI33
aI34
aI35
aI36
aI37
aI38
aI39
aI40
aI41
aI42
aI43
aI44
aI45
aI46
aI47
aI48
aI49
aI50
aI51
aI52
aI53
aI54
aI55
aI56
aI57
aI58
aI59
aI60
aI61
aI62
aI63
aI64
aI65
aI66
aI67
aI68
aI69
aI70
aI71
aI72
aI73
aI74
aI75
aI76
aI77
aI78
aI79
aI80
aI81
aI82
aI83
aI84
aI85
aI86
aI87
aI88
aI89
aI90
aI91
aI92
aI93
aI94
aI95
aI96
aI97
aI98
aI99
asI1
(lp8
I0
aI1
aI2
aI3
aI4
aI5
aI6
aI7
aI8
aI9
aI10
aI11
aI12
aI13
aI14
aI15
aI16
aI17
aI18
aI19
aI20
aI21
aI22
aI23
aI24
aI25
aI26
aI27
aI28
aI29
aI30
aI31
aI32
aI33
aI34
aI35
aI36
aI37
aI38
aI39
aI40
aI41
aI42
aI43
aI44
aI45
aI46
aI47
aI48
aI49
aI50
aI51
aI52
aI53
aI54
aI55
aI56
aI57
aI58
aI59
aI60
aI61
aI62
aI63
aI64
aI65
aI66
aI67
aI68
aI69
aI70
aI71
aI72
aI73
aI74
aI75
aI76
aI77
aI78
aI79
aI80
aI81
aI82
aI83
aI84
aI85
aI86
aI87
aI88
aI89
aI90
aI91
aI92
aI93
aI94
aI95
aI96
aI97
aI98
aI99
assS'influenced_neurons_by_h1_neuron'
p9
(dp10
I0
(lp11
I0
asI1
(lp12
I0
asI2
(lp13
I0
asI3
(lp14
I0
asI4
(lp15
I0
asI5
(lp16
I0
asI6
(lp17
I0
asI7
(lp18
I0
asI8
(lp19
I0
asI9
(lp20
I0
asI10
(lp21
I0
asI11
(lp22
I0
asI12
(lp23
I0
asI13
(lp24
I0
asI14
(lp25
I0
asI15
(lp26
I0
asI16
(lp27
I0
asI17
(lp28
I0
asI18
(lp29
I0
asI19
(lp30
I0
asI20
(lp31
I0
asI21
(lp32
I0
asI22
(lp33
I0
asI23
(lp34
I0
asI24
(lp35
I0
asI25
(lp36
I0
asI26
(lp37
I0
asI27
(lp38
I0
asI28
(lp39
I0
asI29
(lp40
I0
asI30
(lp41
I0
asI31
(lp42
I0
asI32
(lp43
I0
asI33
(lp44
I0
asI34
(lp45
I0
asI35
(lp46
I0
asI36
(lp47
I0
asI37
(lp48
I0
asI38
(lp49
I0
asI39
(lp50
I0
asI40
(lp51
I0
asI41
(lp52
I0
asI42
(lp53
I0
asI43
(lp54
I0
asI44
(lp55
I0
asI45
(lp56
I0
asI46
(lp57
I0
asI47
(lp58
I0
asI48
(lp59
I0
asI49
(lp60
I0
asI50
(lp61
I0
asI51
(lp62
I0
asI52
(lp63
I0
asI53
(lp64
I0
asI54
(lp65
I0
asI55
(lp66
I0
asI56
(lp67
I0
asI57
(lp68
I0
asI58
(lp69
I0
asI59
(lp70
I0
asI60
(lp71
I0
asI61
(lp72
I0
asI62
(lp73
I0
asI63
(lp74
I0
asI64
(lp75
I0
asI65
(lp76
I0
asI66
(lp77
I0
asI67
(lp78
I0
asI68
(lp79
I0
asI69
(lp80
I0
asI70
(lp81
I0
asI71
(lp82
I0
asI72
(lp83
I0
asI73
(lp84
I0
asI74
(lp85
I0
asI75
(lp86
I0
asI76
(lp87
I0
asI77
(lp88
I0
asI78
(lp89
I0
asI79
(lp90
I0
asI80
(lp91
I0
asI81
(lp92
I0
asI82
(lp93
I0
asI83
(lp94
I0
asI84
(lp95
I0
asI85
(lp96
I0
asI86
(lp97
I0
asI87
(lp98
I0
asI88
(lp99
I0
asI89
(lp100
I0
asI90
(lp101
I0
asI91
(lp102
I0
asI92
(lp103
I0
asI93
(lp104
I0
asI94
(lp105
I0
asI95
(lp106
I0
asI96
(lp107
I0
asI97
(lp108
I0
asI98
(lp109
I0
asI99
(lp110
I0
assS'n_dead_neurons_by_layer'
p111
(lp112
I0
aI0
aI0
asS'n_synapses'
p113
I300
sS'n_dead_neurons'
p114
I0
sS'net_structure'
p115
(lp116
I2
aI100
aI1
asS'required_accuracy'
p117
F0.9
sS'cut_percentile'
p118
I75
sS'plus_epochs_needed'
p119
NsS'accuracy'
p120
F0.9025
ssI1
(dp121
g2
F0.01
sg115
(lp122
I2
aI18
aI1
asg3
F1.440874973932902
sg4
I21
sg5
(dp123
I0
(lp124
I1
aI5
aI10
aI26
aI29
aI30
aI37
aI40
aI44
aI50
aI57
aI66
aI68
aI70
aI71
aI74
aI86
aI99
asI1
(lp125
I1
aI5
aI10
aI26
aI29
aI30
aI37
aI40
aI44
aI50
aI57
aI66
aI68
aI70
aI71
aI74
aI86
aI99
assg9
(dp126
I0
(lp127
sI1
(lp128
I0
asI2
(lp129
sI3
(lp130
sI4
(lp131
sI5
(lp132
I0
asI6
(lp133
sI7
(lp134
sI8
(lp135
sI9
(lp136
sI10
(lp137
I0
asI11
(lp138
sI12
(lp139
sI13
(lp140
sI14
(lp141
sI15
(lp142
sI16
(lp143
sI17
(lp144
sI18
(lp145
sI19
(lp146
sI20
(lp147
sI21
(lp148
sI22
(lp149
sI23
(lp150
sI24
(lp151
sI25
(lp152
sI26
(lp153
I0
asI27
(lp154
sI28
(lp155
sI29
(lp156
I0
asI30
(lp157
I0
asI31
(lp158
sI32
(lp159
sI33
(lp160
sI34
(lp161
sI35
(lp162
sI36
(lp163
sI37
(lp164
I0
asI38
(lp165
sI39
(lp166
sI40
(lp167
I0
asI41
(lp168
sI42
(lp169
sI43
(lp170
sI44
(lp171
I0
asI45
(lp172
sI46
(lp173
sI47
(lp174
sI48
(lp175
sI49
(lp176
sI50
(lp177
I0
asI51
(lp178
sI52
(lp179
sI53
(lp180
sI54
(lp181
sI55
(lp182
sI56
(lp183
sI57
(lp184
I0
asI58
(lp185
sI59
(lp186
sI60
(lp187
sI61
(lp188
sI62
(lp189
sI63
(lp190
sI64
(lp191
sI65
(lp192
sI66
(lp193
I0
asI67
(lp194
sI68
(lp195
I0
asI69
(lp196
sI70
(lp197
I0
asI71
(lp198
I0
asI72
(lp199
sI73
(lp200
sI74
(lp201
I0
asI75
(lp202
sI76
(lp203
sI77
(lp204
sI78
(lp205
sI79
(lp206
sI80
(lp207
sI81
(lp208
sI82
(lp209
sI83
(lp210
sI84
(lp211
sI85
(lp212
sI86
(lp213
I0
asI87
(lp214
sI88
(lp215
sI89
(lp216
sI90
(lp217
sI91
(lp218
sI92
(lp219
sI93
(lp220
sI94
(lp221
sI95
(lp222
sI96
(lp223
sI97
(lp224
sI98
(lp225
sI99
(lp226
I0
assg113
I54
sg114
I82
sg111
(lp227
I0
aI82
aI0
asg117
F0.9
sg118
I75
sg119
I3
sg120
F0.893
ssI2
(dp228
g2
F0.01
sg115
(lp229
I2
aI18
aI1
asg3
F1.440874973932902
sg4
I21
sg5
(dp230
I0
(lp231
I1
aI5
aI10
aI26
aI29
aI30
aI37
aI40
aI44
aI50
aI57
aI66
aI68
aI70
aI71
aI74
aI86
aI99
asI1
(lp232
I1
aI5
aI10
aI26
aI29
aI30
aI37
aI40
aI44
aI50
aI57
aI66
aI68
aI70
aI71
aI74
aI86
aI99
assg9
(dp233
I0
(lp234
sI1
(lp235
I0
asI2
(lp236
sI3
(lp237
sI4
(lp238
sI5
(lp239
I0
asI6
(lp240
sI7
(lp241
sI8
(lp242
sI9
(lp243
sI10
(lp244
I0
asI11
(lp245
sI12
(lp246
sI13
(lp247
sI14
(lp248
sI15
(lp249
sI16
(lp250
sI17
(lp251
sI18
(lp252
sI19
(lp253
sI20
(lp254
sI21
(lp255
sI22
(lp256
sI23
(lp257
sI24
(lp258
sI25
(lp259
sI26
(lp260
I0
asI27
(lp261
sI28
(lp262
sI29
(lp263
I0
asI30
(lp264
I0
asI31
(lp265
sI32
(lp266
sI33
(lp267
sI34
(lp268
sI35
(lp269
sI36
(lp270
sI37
(lp271
I0
asI38
(lp272
sI39
(lp273
sI40
(lp274
I0
asI41
(lp275
sI42
(lp276
sI43
(lp277
sI44
(lp278
I0
asI45
(lp279
sI46
(lp280
sI47
(lp281
sI48
(lp282
sI49
(lp283
sI50
(lp284
I0
asI51
(lp285
sI52
(lp286
sI53
(lp287
sI54
(lp288
sI55
(lp289
sI56
(lp290
sI57
(lp291
I0
asI58
(lp292
sI59
(lp293
sI60
(lp294
sI61
(lp295
sI62
(lp296
sI63
(lp297
sI64
(lp298
sI65
(lp299
sI66
(lp300
I0
asI67
(lp301
sI68
(lp302
I0
asI69
(lp303
sI70
(lp304
I0
asI71
(lp305
I0
asI72
(lp306
sI73
(lp307
sI74
(lp308
I0
asI75
(lp309
sI76
(lp310
sI77
(lp311
sI78
(lp312
sI79
(lp313
sI80
(lp314
sI81
(lp315
sI82
(lp316
sI83
(lp317
sI84
(lp318
sI85
(lp319
sI86
(lp320
I0
asI87
(lp321
sI88
(lp322
sI89
(lp323
sI90
(lp324
sI91
(lp325
sI92
(lp326
sI93
(lp327
sI94
(lp328
sI95
(lp329
sI96
(lp330
sI97
(lp331
sI98
(lp332
sI99
(lp333
I0
assg113
I54
sg114
I82
sg111
(lp334
I0
aI82
aI0
asg117
F0.9
sg118
I75
sg119
I3
sg120
F0.893
ssI3
(dp335
g2
F0.01
sg115
(lp336
I2
aI7
aI1
asg3
F1.4420608679453533
sg4
I10
sg5
(dp337
I0
(lp338
I5
aI30
aI57
aI74
aI86
aI99
asI1
(lp339
I30
aI68
aI74
aI86
assg9
(dp340
I0
(lp341
sI1
(lp342
sI2
(lp343
sI3
(lp344
sI4
(lp345
sI5
(lp346
I0
asI6
(lp347
sI7
(lp348
sI8
(lp349
sI9
(lp350
sI10
(lp351
sI11
(lp352
sI12
(lp353
sI13
(lp354
sI14
(lp355
sI15
(lp356
sI16
(lp357
sI17
(lp358
sI18
(lp359
sI19
(lp360
sI20
(lp361
sI21
(lp362
sI22
(lp363
sI23
(lp364
sI24
(lp365
sI25
(lp366
sI26
(lp367
sI27
(lp368
sI28
(lp369
sI29
(lp370
sI30
(lp371
I0
asI31
(lp372
sI32
(lp373
sI33
(lp374
sI34
(lp375
sI35
(lp376
sI36
(lp377
sI37
(lp378
sI38
(lp379
sI39
(lp380
sI40
(lp381
sI41
(lp382
sI42
(lp383
sI43
(lp384
sI44
(lp385
sI45
(lp386
sI46
(lp387
sI47
(lp388
sI48
(lp389
sI49
(lp390
sI50
(lp391
sI51
(lp392
sI52
(lp393
sI53
(lp394
sI54
(lp395
sI55
(lp396
sI56
(lp397
sI57
(lp398
I0
asI58
(lp399
sI59
(lp400
sI60
(lp401
sI61
(lp402
sI62
(lp403
sI63
(lp404
sI64
(lp405
sI65
(lp406
sI66
(lp407
sI67
(lp408
sI68
(lp409
I0
asI69
(lp410
sI70
(lp411
sI71
(lp412
sI72
(lp413
sI73
(lp414
sI74
(lp415
I0
asI75
(lp416
sI76
(lp417
sI77
(lp418
sI78
(lp419
sI79
(lp420
sI80
(lp421
sI81
(lp422
sI82
(lp423
sI83
(lp424
sI84
(lp425
sI85
(lp426
sI86
(lp427
I0
asI87
(lp428
sI88
(lp429
sI89
(lp430
sI90
(lp431
sI91
(lp432
sI92
(lp433
sI93
(lp434
sI94
(lp435
sI95
(lp436
sI96
(lp437
sI97
(lp438
sI98
(lp439
sI99
(lp440
I0
assg113
I17
sg114
I93
sg111
(lp441
I0
aI93
aI0
asg117
F0.9
sg118
I60
sg119
I12
sg120
F0.898
ssI4
(dp442
g2
F0.01
sg115
(lp443
I2
aI7
aI1
asg3
F1.4420608679453533
sg4
I10
sg5
(dp444
I0
(lp445
I5
aI30
aI57
aI74
aI86
aI99
asI1
(lp446
I30
aI68
aI74
aI86
assg9
(dp447
I0
(lp448
sI1
(lp449
sI2
(lp450
sI3
(lp451
sI4
(lp452
sI5
(lp453
I0
asI6
(lp454
sI7
(lp455
sI8
(lp456
sI9
(lp457
sI10
(lp458
sI11
(lp459
sI12
(lp460
sI13
(lp461
sI14
(lp462
sI15
(lp463
sI16
(lp464
sI17
(lp465
sI18
(lp466
sI19
(lp467
sI20
(lp468
sI21
(lp469
sI22
(lp470
sI23
(lp471
sI24
(lp472
sI25
(lp473
sI26
(lp474
sI27
(lp475
sI28
(lp476
sI29
(lp477
sI30
(lp478
I0
asI31
(lp479
sI32
(lp480
sI33
(lp481
sI34
(lp482
sI35
(lp483
sI36
(lp484
sI37
(lp485
sI38
(lp486
sI39
(lp487
sI40
(lp488
sI41
(lp489
sI42
(lp490
sI43
(lp491
sI44
(lp492
sI45
(lp493
sI46
(lp494
sI47
(lp495
sI48
(lp496
sI49
(lp497
sI50
(lp498
sI51
(lp499
sI52
(lp500
sI53
(lp501
sI54
(lp502
sI55
(lp503
sI56
(lp504
sI57
(lp505
I0
asI58
(lp506
sI59
(lp507
sI60
(lp508
sI61
(lp509
sI62
(lp510
sI63
(lp511
sI64
(lp512
sI65
(lp513
sI66
(lp514
sI67
(lp515
sI68
(lp516
I0
asI69
(lp517
sI70
(lp518
sI71
(lp519
sI72
(lp520
sI73
(lp521
sI74
(lp522
I0
asI75
(lp523
sI76
(lp524
sI77
(lp525
sI78
(lp526
sI79
(lp527
sI80
(lp528
sI81
(lp529
sI82
(lp530
sI83
(lp531
sI84
(lp532
sI85
(lp533
sI86
(lp534
I0
asI87
(lp535
sI88
(lp536
sI89
(lp537
sI90
(lp538
sI91
(lp539
sI92
(lp540
sI93
(lp541
sI94
(lp542
sI95
(lp543
sI96
(lp544
sI97
(lp545
sI98
(lp546
sI99
(lp547
I0
assg113
I17
sg114
I93
sg111
(lp548
I0
aI93
aI0
asg117
F0.9
sg118
I60
sg119
I12
sg120
F0.898
ssI5
(dp549
g2
F0.01
sg115
(lp550
I2
aI7
aI1
asg3
F1.4420608679453533
sg4
I10
sg5
(dp551
I0
(lp552
I5
aI30
aI57
aI74
aI86
aI99
asI1
(lp553
I30
aI68
aI74
aI86
assg9
(dp554
I0
(lp555
sI1
(lp556
sI2
(lp557
sI3
(lp558
sI4
(lp559
sI5
(lp560
I0
asI6
(lp561
sI7
(lp562
sI8
(lp563
sI9
(lp564
sI10
(lp565
sI11
(lp566
sI12
(lp567
sI13
(lp568
sI14
(lp569
sI15
(lp570
sI16
(lp571
sI17
(lp572
sI18
(lp573
sI19
(lp574
sI20
(lp575
sI21
(lp576
sI22
(lp577
sI23
(lp578
sI24
(lp579
sI25
(lp580
sI26
(lp581
sI27
(lp582
sI28
(lp583
sI29
(lp584
sI30
(lp585
I0
asI31
(lp586
sI32
(lp587
sI33
(lp588
sI34
(lp589
sI35
(lp590
sI36
(lp591
sI37
(lp592
sI38
(lp593
sI39
(lp594
sI40
(lp595
sI41
(lp596
sI42
(lp597
sI43
(lp598
sI44
(lp599
sI45
(lp600
sI46
(lp601
sI47
(lp602
sI48
(lp603
sI49
(lp604
sI50
(lp605
sI51
(lp606
sI52
(lp607
sI53
(lp608
sI54
(lp609
sI55
(lp610
sI56
(lp611
sI57
(lp612
I0
asI58
(lp613
sI59
(lp614
sI60
(lp615
sI61
(lp616
sI62
(lp617
sI63
(lp618
sI64
(lp619
sI65
(lp620
sI66
(lp621
sI67
(lp622
sI68
(lp623
I0
asI69
(lp624
sI70
(lp625
sI71
(lp626
sI72
(lp627
sI73
(lp628
sI74
(lp629
I0
asI75
(lp630
sI76
(lp631
sI77
(lp632
sI78
(lp633
sI79
(lp634
sI80
(lp635
sI81
(lp636
sI82
(lp637
sI83
(lp638
sI84
(lp639
sI85
(lp640
sI86
(lp641
I0
asI87
(lp642
sI88
(lp643
sI89
(lp644
sI90
(lp645
sI91
(lp646
sI92
(lp647
sI93
(lp648
sI94
(lp649
sI95
(lp650
sI96
(lp651
sI97
(lp652
sI98
(lp653
sI99
(lp654
I0
assg113
I17
sg114
I93
sg111
(lp655
I0
aI93
aI0
asg117
F0.9
sg118
I60
sg119
I12
sg120
F0.898
ssI6
(dp656
g2
F0.01
sg115
(lp657
I2
aI3
aI1
asg3
F1.4409361226218087
sg4
I6
sg5
(dp658
I0
(lp659
I74
aI86
asI1
(lp660
I30
aI74
aI86
assg9
(dp661
I0
(lp662
sI1
(lp663
sI2
(lp664
sI3
(lp665
sI4
(lp666
sI5
(lp667
sI6
(lp668
sI7
(lp669
sI8
(lp670
sI9
(lp671
sI10
(lp672
sI11
(lp673
sI12
(lp674
sI13
(lp675
sI14
(lp676
sI15
(lp677
sI16
(lp678
sI17
(lp679
sI18
(lp680
sI19
(lp681
sI20
(lp682
sI21
(lp683
sI22
(lp684
sI23
(lp685
sI24
(lp686
sI25
(lp687
sI26
(lp688
sI27
(lp689
sI28
(lp690
sI29
(lp691
sI30
(lp692
I0
asI31
(lp693
sI32
(lp694
sI33
(lp695
sI34
(lp696
sI35
(lp697
sI36
(lp698
sI37
(lp699
sI38
(lp700
sI39
(lp701
sI40
(lp702
sI41
(lp703
sI42
(lp704
sI43
(lp705
sI44
(lp706
sI45
(lp707
sI46
(lp708
sI47
(lp709
sI48
(lp710
sI49
(lp711
sI50
(lp712
sI51
(lp713
sI52
(lp714
sI53
(lp715
sI54
(lp716
sI55
(lp717
sI56
(lp718
sI57
(lp719
sI58
(lp720
sI59
(lp721
sI60
(lp722
sI61
(lp723
sI62
(lp724
sI63
(lp725
sI64
(lp726
sI65
(lp727
sI66
(lp728
sI67
(lp729
sI68
(lp730
sI69
(lp731
sI70
(lp732
sI71
(lp733
sI72
(lp734
sI73
(lp735
sI74
(lp736
I0
asI75
(lp737
sI76
(lp738
sI77
(lp739
sI78
(lp740
sI79
(lp741
sI80
(lp742
sI81
(lp743
sI82
(lp744
sI83
(lp745
sI84
(lp746
sI85
(lp747
sI86
(lp748
I0
asI87
(lp749
sI88
(lp750
sI89
(lp751
sI90
(lp752
sI91
(lp753
sI92
(lp754
sI93
(lp755
sI94
(lp756
sI95
(lp757
sI96
(lp758
sI97
(lp759
sI98
(lp760
sI99
(lp761
ssg113
I8
sg114
I97
sg111
(lp762
I0
aI97
aI0
asg117
F0.9
sg118
I45
sg119
I7
sg120
F0.892
ssI7
(dp763
g2
F0.01
sg115
(lp764
I2
aI3
aI1
asg3
F1.4409361226218087
sg4
I6
sg5
(dp765
I0
(lp766
I74
aI86
asI1
(lp767
I30
aI74
aI86
assg9
(dp768
I0
(lp769
sI1
(lp770
sI2
(lp771
sI3
(lp772
sI4
(lp773
sI5
(lp774
sI6
(lp775
sI7
(lp776
sI8
(lp777
sI9
(lp778
sI10
(lp779
sI11
(lp780
sI12
(lp781
sI13
(lp782
sI14
(lp783
sI15
(lp784
sI16
(lp785
sI17
(lp786
sI18
(lp787
sI19
(lp788
sI20
(lp789
sI21
(lp790
sI22
(lp791
sI23
(lp792
sI24
(lp793
sI25
(lp794
sI26
(lp795
sI27
(lp796
sI28
(lp797
sI29
(lp798
sI30
(lp799
I0
asI31
(lp800
sI32
(lp801
sI33
(lp802
sI34
(lp803
sI35
(lp804
sI36
(lp805
sI37
(lp806
sI38
(lp807
sI39
(lp808
sI40
(lp809
sI41
(lp810
sI42
(lp811
sI43
(lp812
sI44
(lp813
sI45
(lp814
sI46
(lp815
sI47
(lp816
sI48
(lp817
sI49
(lp818
sI50
(lp819
sI51
(lp820
sI52
(lp821
sI53
(lp822
sI54
(lp823
sI55
(lp824
sI56
(lp825
sI57
(lp826
sI58
(lp827
sI59
(lp828
sI60
(lp829
sI61
(lp830
sI62
(lp831
sI63
(lp832
sI64
(lp833
sI65
(lp834
sI66
(lp835
sI67
(lp836
sI68
(lp837
sI69
(lp838
sI70
(lp839
sI71
(lp840
sI72
(lp841
sI73
(lp842
sI74
(lp843
I0
asI75
(lp844
sI76
(lp845
sI77
(lp846
sI78
(lp847
sI79
(lp848
sI80
(lp849
sI81
(lp850
sI82
(lp851
sI83
(lp852
sI84
(lp853
sI85
(lp854
sI86
(lp855
I0
asI87
(lp856
sI88
(lp857
sI89
(lp858
sI90
(lp859
sI91
(lp860
sI92
(lp861
sI93
(lp862
sI94
(lp863
sI95
(lp864
sI96
(lp865
sI97
(lp866
sI98
(lp867
sI99
(lp868
ssg113
I8
sg114
I97
sg111
(lp869
I0
aI97
aI0
asg117
F0.9
sg118
I45
sg119
I7
sg120
F0.892
ssI8
(dp870
g2
F0.01
sg115
(lp871
I2
aI3
aI1
asg3
F1.4409361226218087
sg4
I6
sg5
(dp872
I0
(lp873
I74
aI86
asI1
(lp874
I30
aI74
aI86
assg9
(dp875
I0
(lp876
sI1
(lp877
sI2
(lp878
sI3
(lp879
sI4
(lp880
sI5
(lp881
sI6
(lp882
sI7
(lp883
sI8
(lp884
sI9
(lp885
sI10
(lp886
sI11
(lp887
sI12
(lp888
sI13
(lp889
sI14
(lp890
sI15
(lp891
sI16
(lp892
sI17
(lp893
sI18
(lp894
sI19
(lp895
sI20
(lp896
sI21
(lp897
sI22
(lp898
sI23
(lp899
sI24
(lp900
sI25
(lp901
sI26
(lp902
sI27
(lp903
sI28
(lp904
sI29
(lp905
sI30
(lp906
I0
asI31
(lp907
sI32
(lp908
sI33
(lp909
sI34
(lp910
sI35
(lp911
sI36
(lp912
sI37
(lp913
sI38
(lp914
sI39
(lp915
sI40
(lp916
sI41
(lp917
sI42
(lp918
sI43
(lp919
sI44
(lp920
sI45
(lp921
sI46
(lp922
sI47
(lp923
sI48
(lp924
sI49
(lp925
sI50
(lp926
sI51
(lp927
sI52
(lp928
sI53
(lp929
sI54
(lp930
sI55
(lp931
sI56
(lp932
sI57
(lp933
sI58
(lp934
sI59
(lp935
sI60
(lp936
sI61
(lp937
sI62
(lp938
sI63
(lp939
sI64
(lp940
sI65
(lp941
sI66
(lp942
sI67
(lp943
sI68
(lp944
sI69
(lp945
sI70
(lp946
sI71
(lp947
sI72
(lp948
sI73
(lp949
sI74
(lp950
I0
asI75
(lp951
sI76
(lp952
sI77
(lp953
sI78
(lp954
sI79
(lp955
sI80
(lp956
sI81
(lp957
sI82
(lp958
sI83
(lp959
sI84
(lp960
sI85
(lp961
sI86
(lp962
I0
asI87
(lp963
sI88
(lp964
sI89
(lp965
sI90
(lp966
sI91
(lp967
sI92
(lp968
sI93
(lp969
sI94
(lp970
sI95
(lp971
sI96
(lp972
sI97
(lp973
sI98
(lp974
sI99
(lp975
ssg113
I8
sg114
I97
sg111
(lp976
I0
aI97
aI0
asg117
F0.9
sg118
I45
sg119
I7
sg120
F0.892
ssI9
(dp977
g2
F0.01
sg115
(lp978
I2
aI3
aI1
asg3
F1.4409361226218087
sg4
I6
sg5
(dp979
I0
(lp980
I74
aI86
asI1
(lp981
I30
aI74
aI86
assg9
(dp982
I0
(lp983
sI1
(lp984
sI2
(lp985
sI3
(lp986
sI4
(lp987
sI5
(lp988
sI6
(lp989
sI7
(lp990
sI8
(lp991
sI9
(lp992
sI10
(lp993
sI11
(lp994
sI12
(lp995
sI13
(lp996
sI14
(lp997
sI15
(lp998
sI16
(lp999
sI17
(lp1000
sI18
(lp1001
sI19
(lp1002
sI20
(lp1003
sI21
(lp1004
sI22
(lp1005
sI23
(lp1006
sI24
(lp1007
sI25
(lp1008
sI26
(lp1009
sI27
(lp1010
sI28
(lp1011
sI29
(lp1012
sI30
(lp1013
I0
asI31
(lp1014
sI32
(lp1015
sI33
(lp1016
sI34
(lp1017
sI35
(lp1018
sI36
(lp1019
sI37
(lp1020
sI38
(lp1021
sI39
(lp1022
sI40
(lp1023
sI41
(lp1024
sI42
(lp1025
sI43
(lp1026
sI44
(lp1027
sI45
(lp1028
sI46
(lp1029
sI47
(lp1030
sI48
(lp1031
sI49
(lp1032
sI50
(lp1033
sI51
(lp1034
sI52
(lp1035
sI53
(lp1036
sI54
(lp1037
sI55
(lp1038
sI56
(lp1039
sI57
(lp1040
sI58
(lp1041
sI59
(lp1042
sI60
(lp1043
sI61
(lp1044
sI62
(lp1045
sI63
(lp1046
sI64
(lp1047
sI65
(lp1048
sI66
(lp1049
sI67
(lp1050
sI68
(lp1051
sI69
(lp1052
sI70
(lp1053
sI71
(lp1054
sI72
(lp1055
sI73
(lp1056
sI74
(lp1057
I0
asI75
(lp1058
sI76
(lp1059
sI77
(lp1060
sI78
(lp1061
sI79
(lp1062
sI80
(lp1063
sI81
(lp1064
sI82
(lp1065
sI83
(lp1066
sI84
(lp1067
sI85
(lp1068
sI86
(lp1069
I0
asI87
(lp1070
sI88
(lp1071
sI89
(lp1072
sI90
(lp1073
sI91
(lp1074
sI92
(lp1075
sI93
(lp1076
sI94
(lp1077
sI95
(lp1078
sI96
(lp1079
sI97
(lp1080
sI98
(lp1081
sI99
(lp1082
ssg113
I8
sg114
I97
sg111
(lp1083
I0
aI97
aI0
asg117
F0.9
sg118
I45
sg119
I7
sg120
F0.892
ssI10
(dp1084
g2
F0.01
sg115
(lp1085
I2
aI3
aI1
asg3
F1.4409361226218087
sg4
I6
sg5
(dp1086
I0
(lp1087
I74
aI86
asI1
(lp1088
I30
aI74
aI86
assg9
(dp1089
I0
(lp1090
sI1
(lp1091
sI2
(lp1092
sI3
(lp1093
sI4
(lp1094
sI5
(lp1095
sI6
(lp1096
sI7
(lp1097
sI8
(lp1098
sI9
(lp1099
sI10
(lp1100
sI11
(lp1101
sI12
(lp1102
sI13
(lp1103
sI14
(lp1104
sI15
(lp1105
sI16
(lp1106
sI17
(lp1107
sI18
(lp1108
sI19
(lp1109
sI20
(lp1110
sI21
(lp1111
sI22
(lp1112
sI23
(lp1113
sI24
(lp1114
sI25
(lp1115
sI26
(lp1116
sI27
(lp1117
sI28
(lp1118
sI29
(lp1119
sI30
(lp1120
I0
asI31
(lp1121
sI32
(lp1122
sI33
(lp1123
sI34
(lp1124
sI35
(lp1125
sI36
(lp1126
sI37
(lp1127
sI38
(lp1128
sI39
(lp1129
sI40
(lp1130
sI41
(lp1131
sI42
(lp1132
sI43
(lp1133
sI44
(lp1134
sI45
(lp1135
sI46
(lp1136
sI47
(lp1137
sI48
(lp1138
sI49
(lp1139
sI50
(lp1140
sI51
(lp1141
sI52
(lp1142
sI53
(lp1143
sI54
(lp1144
sI55
(lp1145
sI56
(lp1146
sI57
(lp1147
sI58
(lp1148
sI59
(lp1149
sI60
(lp1150
sI61
(lp1151
sI62
(lp1152
sI63
(lp1153
sI64
(lp1154
sI65
(lp1155
sI66
(lp1156
sI67
(lp1157
sI68
(lp1158
sI69
(lp1159
sI70
(lp1160
sI71
(lp1161
sI72
(lp1162
sI73
(lp1163
sI74
(lp1164
I0
asI75
(lp1165
sI76
(lp1166
sI77
(lp1167
sI78
(lp1168
sI79
(lp1169
sI80
(lp1170
sI81
(lp1171
sI82
(lp1172
sI83
(lp1173
sI84
(lp1174
sI85
(lp1175
sI86
(lp1176
I0
asI87
(lp1177
sI88
(lp1178
sI89
(lp1179
sI90
(lp1180
sI91
(lp1181
sI92
(lp1182
sI93
(lp1183
sI94
(lp1184
sI95
(lp1185
sI96
(lp1186
sI97
(lp1187
sI98
(lp1188
sI99
(lp1189
ssg113
I8
sg114
I97
sg111
(lp1190
I0
aI97
aI0
asg117
F0.9
sg118
I45
sg119
I7
sg120
F0.892
ssI11
(dp1191
g2
F0.01
sg115
(lp1192
I2
aI3
aI1
asg3
F1.4409361226218087
sg4
I6
sg5
(dp1193
I0
(lp1194
I74
aI86
asI1
(lp1195
I30
aI74
aI86
assg9
(dp1196
I0
(lp1197
sI1
(lp1198
sI2
(lp1199
sI3
(lp1200
sI4
(lp1201
sI5
(lp1202
sI6
(lp1203
sI7
(lp1204
sI8
(lp1205
sI9
(lp1206
sI10
(lp1207
sI11
(lp1208
sI12
(lp1209
sI13
(lp1210
sI14
(lp1211
sI15
(lp1212
sI16
(lp1213
sI17
(lp1214
sI18
(lp1215
sI19
(lp1216
sI20
(lp1217
sI21
(lp1218
sI22
(lp1219
sI23
(lp1220
sI24
(lp1221
sI25
(lp1222
sI26
(lp1223
sI27
(lp1224
sI28
(lp1225
sI29
(lp1226
sI30
(lp1227
I0
asI31
(lp1228
sI32
(lp1229
sI33
(lp1230
sI34
(lp1231
sI35
(lp1232
sI36
(lp1233
sI37
(lp1234
sI38
(lp1235
sI39
(lp1236
sI40
(lp1237
sI41
(lp1238
sI42
(lp1239
sI43
(lp1240
sI44
(lp1241
sI45
(lp1242
sI46
(lp1243
sI47
(lp1244
sI48
(lp1245
sI49
(lp1246
sI50
(lp1247
sI51
(lp1248
sI52
(lp1249
sI53
(lp1250
sI54
(lp1251
sI55
(lp1252
sI56
(lp1253
sI57
(lp1254
sI58
(lp1255
sI59
(lp1256
sI60
(lp1257
sI61
(lp1258
sI62
(lp1259
sI63
(lp1260
sI64
(lp1261
sI65
(lp1262
sI66
(lp1263
sI67
(lp1264
sI68
(lp1265
sI69
(lp1266
sI70
(lp1267
sI71
(lp1268
sI72
(lp1269
sI73
(lp1270
sI74
(lp1271
I0
asI75
(lp1272
sI76
(lp1273
sI77
(lp1274
sI78
(lp1275
sI79
(lp1276
sI80
(lp1277
sI81
(lp1278
sI82
(lp1279
sI83
(lp1280
sI84
(lp1281
sI85
(lp1282
sI86
(lp1283
I0
asI87
(lp1284
sI88
(lp1285
sI89
(lp1286
sI90
(lp1287
sI91
(lp1288
sI92
(lp1289
sI93
(lp1290
sI94
(lp1291
sI95
(lp1292
sI96
(lp1293
sI97
(lp1294
sI98
(lp1295
sI99
(lp1296
ssg113
I8
sg114
I97
sg111
(lp1297
I0
aI97
aI0
asg117
F0.9
sg118
I45
sg119
I7
sg120
F0.892
ssI12
(dp1298
g2
F0.01
sg115
(lp1299
I2
aI3
aI1
asg3
F1.4409361226218087
sg4
I6
sg5
(dp1300
I0
(lp1301
I74
aI86
asI1
(lp1302
I30
aI74
aI86
assg9
(dp1303
I0
(lp1304
sI1
(lp1305
sI2
(lp1306
sI3
(lp1307
sI4
(lp1308
sI5
(lp1309
sI6
(lp1310
sI7
(lp1311
sI8
(lp1312
sI9
(lp1313
sI10
(lp1314
sI11
(lp1315
sI12
(lp1316
sI13
(lp1317
sI14
(lp1318
sI15
(lp1319
sI16
(lp1320
sI17
(lp1321
sI18
(lp1322
sI19
(lp1323
sI20
(lp1324
sI21
(lp1325
sI22
(lp1326
sI23
(lp1327
sI24
(lp1328
sI25
(lp1329
sI26
(lp1330
sI27
(lp1331
sI28
(lp1332
sI29
(lp1333
sI30
(lp1334
I0
asI31
(lp1335
sI32
(lp1336
sI33
(lp1337
sI34
(lp1338
sI35
(lp1339
sI36
(lp1340
sI37
(lp1341
sI38
(lp1342
sI39
(lp1343
sI40
(lp1344
sI41
(lp1345
sI42
(lp1346
sI43
(lp1347
sI44
(lp1348
sI45
(lp1349
sI46
(lp1350
sI47
(lp1351
sI48
(lp1352
sI49
(lp1353
sI50
(lp1354
sI51
(lp1355
sI52
(lp1356
sI53
(lp1357
sI54
(lp1358
sI55
(lp1359
sI56
(lp1360
sI57
(lp1361
sI58
(lp1362
sI59
(lp1363
sI60
(lp1364
sI61
(lp1365
sI62
(lp1366
sI63
(lp1367
sI64
(lp1368
sI65
(lp1369
sI66
(lp1370
sI67
(lp1371
sI68
(lp1372
sI69
(lp1373
sI70
(lp1374
sI71
(lp1375
sI72
(lp1376
sI73
(lp1377
sI74
(lp1378
I0
asI75
(lp1379
sI76
(lp1380
sI77
(lp1381
sI78
(lp1382
sI79
(lp1383
sI80
(lp1384
sI81
(lp1385
sI82
(lp1386
sI83
(lp1387
sI84
(lp1388
sI85
(lp1389
sI86
(lp1390
I0
asI87
(lp1391
sI88
(lp1392
sI89
(lp1393
sI90
(lp1394
sI91
(lp1395
sI92
(lp1396
sI93
(lp1397
sI94
(lp1398
sI95
(lp1399
sI96
(lp1400
sI97
(lp1401
sI98
(lp1402
sI99
(lp1403
ssg113
I8
sg114
I97
sg111
(lp1404
I0
aI97
aI0
asg117
F0.9
sg118
I45
sg119
I7
sg120
F0.892
ssI13
(dp1405
g2
F0.01
sg115
(lp1406
I2
aI3
aI1
asg3
F1.4409361226218087
sg4
I6
sg5
(dp1407
I0
(lp1408
I74
aI86
asI1
(lp1409
I30
aI74
aI86
assg9
(dp1410
I0
(lp1411
sI1
(lp1412
sI2
(lp1413
sI3
(lp1414
sI4
(lp1415
sI5
(lp1416
sI6
(lp1417
sI7
(lp1418
sI8
(lp1419
sI9
(lp1420
sI10
(lp1421
sI11
(lp1422
sI12
(lp1423
sI13
(lp1424
sI14
(lp1425
sI15
(lp1426
sI16
(lp1427
sI17
(lp1428
sI18
(lp1429
sI19
(lp1430
sI20
(lp1431
sI21
(lp1432
sI22
(lp1433
sI23
(lp1434
sI24
(lp1435
sI25
(lp1436
sI26
(lp1437
sI27
(lp1438
sI28
(lp1439
sI29
(lp1440
sI30
(lp1441
I0
asI31
(lp1442
sI32
(lp1443
sI33
(lp1444
sI34
(lp1445
sI35
(lp1446
sI36
(lp1447
sI37
(lp1448
sI38
(lp1449
sI39
(lp1450
sI40
(lp1451
sI41
(lp1452
sI42
(lp1453
sI43
(lp1454
sI44
(lp1455
sI45
(lp1456
sI46
(lp1457
sI47
(lp1458
sI48
(lp1459
sI49
(lp1460
sI50
(lp1461
sI51
(lp1462
sI52
(lp1463
sI53
(lp1464
sI54
(lp1465
sI55
(lp1466
sI56
(lp1467
sI57
(lp1468
sI58
(lp1469
sI59
(lp1470
sI60
(lp1471
sI61
(lp1472
sI62
(lp1473
sI63
(lp1474
sI64
(lp1475
sI65
(lp1476
sI66
(lp1477
sI67
(lp1478
sI68
(lp1479
sI69
(lp1480
sI70
(lp1481
sI71
(lp1482
sI72
(lp1483
sI73
(lp1484
sI74
(lp1485
I0
asI75
(lp1486
sI76
(lp1487
sI77
(lp1488
sI78
(lp1489
sI79
(lp1490
sI80
(lp1491
sI81
(lp1492
sI82
(lp1493
sI83
(lp1494
sI84
(lp1495
sI85
(lp1496
sI86
(lp1497
I0
asI87
(lp1498
sI88
(lp1499
sI89
(lp1500
sI90
(lp1501
sI91
(lp1502
sI92
(lp1503
sI93
(lp1504
sI94
(lp1505
sI95
(lp1506
sI96
(lp1507
sI97
(lp1508
sI98
(lp1509
sI99
(lp1510
ssg113
I8
sg114
I97
sg111
(lp1511
I0
aI97
aI0
asg117
F0.9
sg118
I45
sg119
I7
sg120
F0.892
ssI14
(dp1512
g2
F0.01
sg115
(lp1513
I2
aI2
aI1
asg3
F1.4384487469991047
sg4
I5
sg5
(dp1514
I0
(lp1515
I74
aI86
asI1
(lp1516
I74
aI86
assg9
(dp1517
I0
(lp1518
sI1
(lp1519
sI2
(lp1520
sI3
(lp1521
sI4
(lp1522
sI5
(lp1523
sI6
(lp1524
sI7
(lp1525
sI8
(lp1526
sI9
(lp1527
sI10
(lp1528
sI11
(lp1529
sI12
(lp1530
sI13
(lp1531
sI14
(lp1532
sI15
(lp1533
sI16
(lp1534
sI17
(lp1535
sI18
(lp1536
sI19
(lp1537
sI20
(lp1538
sI21
(lp1539
sI22
(lp1540
sI23
(lp1541
sI24
(lp1542
sI25
(lp1543
sI26
(lp1544
sI27
(lp1545
sI28
(lp1546
sI29
(lp1547
sI30
(lp1548
sI31
(lp1549
sI32
(lp1550
sI33
(lp1551
sI34
(lp1552
sI35
(lp1553
sI36
(lp1554
sI37
(lp1555
sI38
(lp1556
sI39
(lp1557
sI40
(lp1558
sI41
(lp1559
sI42
(lp1560
sI43
(lp1561
sI44
(lp1562
sI45
(lp1563
sI46
(lp1564
sI47
(lp1565
sI48
(lp1566
sI49
(lp1567
sI50
(lp1568
sI51
(lp1569
sI52
(lp1570
sI53
(lp1571
sI54
(lp1572
sI55
(lp1573
sI56
(lp1574
sI57
(lp1575
sI58
(lp1576
sI59
(lp1577
sI60
(lp1578
sI61
(lp1579
sI62
(lp1580
sI63
(lp1581
sI64
(lp1582
sI65
(lp1583
sI66
(lp1584
sI67
(lp1585
sI68
(lp1586
sI69
(lp1587
sI70
(lp1588
sI71
(lp1589
sI72
(lp1590
sI73
(lp1591
sI74
(lp1592
I0
asI75
(lp1593
sI76
(lp1594
sI77
(lp1595
sI78
(lp1596
sI79
(lp1597
sI80
(lp1598
sI81
(lp1599
sI82
(lp1600
sI83
(lp1601
sI84
(lp1602
sI85
(lp1603
sI86
(lp1604
I0
asI87
(lp1605
sI88
(lp1606
sI89
(lp1607
sI90
(lp1608
sI91
(lp1609
sI92
(lp1610
sI93
(lp1611
sI94
(lp1612
sI95
(lp1613
sI96
(lp1614
sI97
(lp1615
sI98
(lp1616
sI99
(lp1617
ssg113
I6
sg114
I98
sg111
(lp1618
I0
aI98
aI0
asg117
F0.9
sg118
I10
sg119
I3
sg120
F0.8925
ssI15
(dp1619
g2
F0.01
sg115
(lp1620
I2
aI2
aI1
asg3
F1.4384487469991047
sg4
I5
sg5
(dp1621
I0
(lp1622
I74
aI86
asI1
(lp1623
I74
aI86
assg9
(dp1624
I0
(lp1625
sI1
(lp1626
sI2
(lp1627
sI3
(lp1628
sI4
(lp1629
sI5
(lp1630
sI6
(lp1631
sI7
(lp1632
sI8
(lp1633
sI9
(lp1634
sI10
(lp1635
sI11
(lp1636
sI12
(lp1637
sI13
(lp1638
sI14
(lp1639
sI15
(lp1640
sI16
(lp1641
sI17
(lp1642
sI18
(lp1643
sI19
(lp1644
sI20
(lp1645
sI21
(lp1646
sI22
(lp1647
sI23
(lp1648
sI24
(lp1649
sI25
(lp1650
sI26
(lp1651
sI27
(lp1652
sI28
(lp1653
sI29
(lp1654
sI30
(lp1655
sI31
(lp1656
sI32
(lp1657
sI33
(lp1658
sI34
(lp1659
sI35
(lp1660
sI36
(lp1661
sI37
(lp1662
sI38
(lp1663
sI39
(lp1664
sI40
(lp1665
sI41
(lp1666
sI42
(lp1667
sI43
(lp1668
sI44
(lp1669
sI45
(lp1670
sI46
(lp1671
sI47
(lp1672
sI48
(lp1673
sI49
(lp1674
sI50
(lp1675
sI51
(lp1676
sI52
(lp1677
sI53
(lp1678
sI54
(lp1679
sI55
(lp1680
sI56
(lp1681
sI57
(lp1682
sI58
(lp1683
sI59
(lp1684
sI60
(lp1685
sI61
(lp1686
sI62
(lp1687
sI63
(lp1688
sI64
(lp1689
sI65
(lp1690
sI66
(lp1691
sI67
(lp1692
sI68
(lp1693
sI69
(lp1694
sI70
(lp1695
sI71
(lp1696
sI72
(lp1697
sI73
(lp1698
sI74
(lp1699
I0
asI75
(lp1700
sI76
(lp1701
sI77
(lp1702
sI78
(lp1703
sI79
(lp1704
sI80
(lp1705
sI81
(lp1706
sI82
(lp1707
sI83
(lp1708
sI84
(lp1709
sI85
(lp1710
sI86
(lp1711
I0
asI87
(lp1712
sI88
(lp1713
sI89
(lp1714
sI90
(lp1715
sI91
(lp1716
sI92
(lp1717
sI93
(lp1718
sI94
(lp1719
sI95
(lp1720
sI96
(lp1721
sI97
(lp1722
sI98
(lp1723
sI99
(lp1724
ssg113
I6
sg114
I98
sg111
(lp1725
I0
aI98
aI0
asg117
F0.9
sg118
I10
sg119
I3
sg120
F0.8925
ss.